/*
 * Intel ACPI Component Architecture
 * AML/ASL+ Disassembler version 20220331 (64-bit version)
 * Copyright (c) 2000 - 2022 Intel Corporation
 * 
 * Disassembly of apic.dat, Sat Nov 25 20:24:48 2023
 *
 * ACPI Data Table [APIC]
 *
 * Format: [HexOffset DecimalOffset ByteLength]  FieldName : FieldValue (in hex)
 */

[000h 0000   4]                    Signature : "APIC"    [Multiple APIC Description Table (MADT)]
[004h 0004   4]                 Table Length : 000001DC
[008h 0008   1]                     Revision : 05
[009h 0009   1]                     Checksum : DC
[00Ah 0010   6]                       Oem ID : "ALASKA"
[010h 0016   8]                 Oem Table ID : "A M I "
[018h 0024   4]                 Oem Revision : 01072009
[01Ch 0028   4]              Asl Compiler ID : "AMI "
[020h 0032   4]        Asl Compiler Revision : 01000013

[024h 0036   4]           Local Apic Address : FEE00000
[028h 0040   4]        Flags (decoded below) : 00000001
                         PC-AT Compatibility : 1

[02Ch 0044   1]                Subtable Type : 00 [Processor Local APIC]
[02Dh 0045   1]                       Length : 08
[02Eh 0046   1]                 Processor ID : 00
[02Fh 0047   1]                Local Apic ID : 00
[030h 0048   4]        Flags (decoded below) : 00000001
                           Processor Enabled : 1
                      Runtime Online Capable : 0

[034h 0052   1]                Subtable Type : 00 [Processor Local APIC]
[035h 0053   1]                       Length : 08
[036h 0054   1]                 Processor ID : 01
[037h 0055   1]                Local Apic ID : 01
[038h 0056   4]        Flags (decoded below) : 00000001
                           Processor Enabled : 1
                      Runtime Online Capable : 0

[03Ch 0060   1]                Subtable Type : 00 [Processor Local APIC]
[03Dh 0061   1]                       Length : 08
[03Eh 0062   1]                 Processor ID : 02
[03Fh 0063   1]                Local Apic ID : 08
[040h 0064   4]        Flags (decoded below) : 00000001
                           Processor Enabled : 1
                      Runtime Online Capable : 0

[044h 0068   1]                Subtable Type : 00 [Processor Local APIC]
[045h 0069   1]                       Length : 08
[046h 0070   1]                 Processor ID : 03
[047h 0071   1]                Local Apic ID : 09
[048h 0072   4]        Flags (decoded below) : 00000001
                           Processor Enabled : 1
                      Runtime Online Capable : 0

[04Ch 0076   1]                Subtable Type : 00 [Processor Local APIC]
[04Dh 0077   1]                       Length : 08
[04Eh 0078   1]                 Processor ID : 04
[04Fh 0079   1]                Local Apic ID : 10
[050h 0080   4]        Flags (decoded below) : 00000001
                           Processor Enabled : 1
                      Runtime Online Capable : 0

[054h 0084   1]                Subtable Type : 00 [Processor Local APIC]
[055h 0085   1]                       Length : 08
[056h 0086   1]                 Processor ID : 05
[057h 0087   1]                Local Apic ID : 11
[058h 0088   4]        Flags (decoded below) : 00000001
                           Processor Enabled : 1
                      Runtime Online Capable : 0

[05Ch 0092   1]                Subtable Type : 00 [Processor Local APIC]
[05Dh 0093   1]                       Length : 08
[05Eh 0094   1]                 Processor ID : 06
[05Fh 0095   1]                Local Apic ID : 18
[060h 0096   4]        Flags (decoded below) : 00000001
                           Processor Enabled : 1
                      Runtime Online Capable : 0

[064h 0100   1]                Subtable Type : 00 [Processor Local APIC]
[065h 0101   1]                       Length : 08
[066h 0102   1]                 Processor ID : 07
[067h 0103   1]                Local Apic ID : 19
[068h 0104   4]        Flags (decoded below) : 00000001
                           Processor Enabled : 1
                      Runtime Online Capable : 0

[06Ch 0108   1]                Subtable Type : 00 [Processor Local APIC]
[06Dh 0109   1]                       Length : 08
[06Eh 0110   1]                 Processor ID : 08
[06Fh 0111   1]                Local Apic ID : 20
[070h 0112   4]        Flags (decoded below) : 00000001
                           Processor Enabled : 1
                      Runtime Online Capable : 0

[074h 0116   1]                Subtable Type : 00 [Processor Local APIC]
[075h 0117   1]                       Length : 08
[076h 0118   1]                 Processor ID : 09
[077h 0119   1]                Local Apic ID : 22
[078h 0120   4]        Flags (decoded below) : 00000001
                           Processor Enabled : 1
                      Runtime Online Capable : 0

[07Ch 0124   1]                Subtable Type : 00 [Processor Local APIC]
[07Dh 0125   1]                       Length : 08
[07Eh 0126   1]                 Processor ID : 0A
[07Fh 0127   1]                Local Apic ID : 24
[080h 0128   4]        Flags (decoded below) : 00000001
                           Processor Enabled : 1
                      Runtime Online Capable : 0

[084h 0132   1]                Subtable Type : 00 [Processor Local APIC]
[085h 0133   1]                       Length : 08
[086h 0134   1]                 Processor ID : 0B
[087h 0135   1]                Local Apic ID : 26
[088h 0136   4]        Flags (decoded below) : 00000001
                           Processor Enabled : 1
                      Runtime Online Capable : 0

[08Ch 0140   1]                Subtable Type : 00 [Processor Local APIC]
[08Dh 0141   1]                       Length : 08
[08Eh 0142   1]                 Processor ID : 0C
[08Fh 0143   1]                Local Apic ID : 28
[090h 0144   4]        Flags (decoded below) : 00000001
                           Processor Enabled : 1
                      Runtime Online Capable : 0

[094h 0148   1]                Subtable Type : 00 [Processor Local APIC]
[095h 0149   1]                       Length : 08
[096h 0150   1]                 Processor ID : 0D
[097h 0151   1]                Local Apic ID : 2A
[098h 0152   4]        Flags (decoded below) : 00000001
                           Processor Enabled : 1
                      Runtime Online Capable : 0

[09Ch 0156   1]                Subtable Type : 00 [Processor Local APIC]
[09Dh 0157   1]                       Length : 08
[09Eh 0158   1]                 Processor ID : 0E
[09Fh 0159   1]                Local Apic ID : 2C
[0A0h 0160   4]        Flags (decoded below) : 00000001
                           Processor Enabled : 1
                      Runtime Online Capable : 0

[0A4h 0164   1]                Subtable Type : 00 [Processor Local APIC]
[0A5h 0165   1]                       Length : 08
[0A6h 0166   1]                 Processor ID : 0F
[0A7h 0167   1]                Local Apic ID : 2E
[0A8h 0168   4]        Flags (decoded below) : 00000001
                           Processor Enabled : 1
                      Runtime Online Capable : 0

[0ACh 0172   1]                Subtable Type : 00 [Processor Local APIC]
[0ADh 0173   1]                       Length : 08
[0AEh 0174   1]                 Processor ID : 10
[0AFh 0175   1]                Local Apic ID : FF
[0B0h 0176   4]        Flags (decoded below) : 00000000
                           Processor Enabled : 0
                      Runtime Online Capable : 0

[0B4h 0180   1]                Subtable Type : 00 [Processor Local APIC]
[0B5h 0181   1]                       Length : 08
[0B6h 0182   1]                 Processor ID : 11
[0B7h 0183   1]                Local Apic ID : FF
[0B8h 0184   4]        Flags (decoded below) : 00000000
                           Processor Enabled : 0
                      Runtime Online Capable : 0

[0BCh 0188   1]                Subtable Type : 00 [Processor Local APIC]
[0BDh 0189   1]                       Length : 08
[0BEh 0190   1]                 Processor ID : 12
[0BFh 0191   1]                Local Apic ID : FF
[0C0h 0192   4]        Flags (decoded below) : 00000000
                           Processor Enabled : 0
                      Runtime Online Capable : 0

[0C4h 0196   1]                Subtable Type : 00 [Processor Local APIC]
[0C5h 0197   1]                       Length : 08
[0C6h 0198   1]                 Processor ID : 13
[0C7h 0199   1]                Local Apic ID : FF
[0C8h 0200   4]        Flags (decoded below) : 00000000
                           Processor Enabled : 0
                      Runtime Online Capable : 0

[0CCh 0204   1]                Subtable Type : 00 [Processor Local APIC]
[0CDh 0205   1]                       Length : 08
[0CEh 0206   1]                 Processor ID : 14
[0CFh 0207   1]                Local Apic ID : FF
[0D0h 0208   4]        Flags (decoded below) : 00000000
                           Processor Enabled : 0
                      Runtime Online Capable : 0

[0D4h 0212   1]                Subtable Type : 00 [Processor Local APIC]
[0D5h 0213   1]                       Length : 08
[0D6h 0214   1]                 Processor ID : 15
[0D7h 0215   1]                Local Apic ID : FF
[0D8h 0216   4]        Flags (decoded below) : 00000000
                           Processor Enabled : 0
                      Runtime Online Capable : 0

[0DCh 0220   1]                Subtable Type : 00 [Processor Local APIC]
[0DDh 0221   1]                       Length : 08
[0DEh 0222   1]                 Processor ID : 16
[0DFh 0223   1]                Local Apic ID : FF
[0E0h 0224   4]        Flags (decoded below) : 00000000
                           Processor Enabled : 0
                      Runtime Online Capable : 0

[0E4h 0228   1]                Subtable Type : 00 [Processor Local APIC]
[0E5h 0229   1]                       Length : 08
[0E6h 0230   1]                 Processor ID : 17
[0E7h 0231   1]                Local Apic ID : FF
[0E8h 0232   4]        Flags (decoded below) : 00000000
                           Processor Enabled : 0
                      Runtime Online Capable : 0

[0ECh 0236   1]                Subtable Type : 00 [Processor Local APIC]
[0EDh 0237   1]                       Length : 08
[0EEh 0238   1]                 Processor ID : 18
[0EFh 0239   1]                Local Apic ID : FF
[0F0h 0240   4]        Flags (decoded below) : 00000000
                           Processor Enabled : 0
                      Runtime Online Capable : 0

[0F4h 0244   1]                Subtable Type : 00 [Processor Local APIC]
[0F5h 0245   1]                       Length : 08
[0F6h 0246   1]                 Processor ID : 19
[0F7h 0247   1]                Local Apic ID : FF
[0F8h 0248   4]        Flags (decoded below) : 00000000
                           Processor Enabled : 0
                      Runtime Online Capable : 0

[0FCh 0252   1]                Subtable Type : 00 [Processor Local APIC]
[0FDh 0253   1]                       Length : 08
[0FEh 0254   1]                 Processor ID : 1A
[0FFh 0255   1]                Local Apic ID : FF
[100h 0256   4]        Flags (decoded below) : 00000000
                           Processor Enabled : 0
                      Runtime Online Capable : 0

[104h 0260   1]                Subtable Type : 00 [Processor Local APIC]
[105h 0261   1]                       Length : 08
[106h 0262   1]                 Processor ID : 1B
[107h 0263   1]                Local Apic ID : FF
[108h 0264   4]        Flags (decoded below) : 00000000
                           Processor Enabled : 0
                      Runtime Online Capable : 0

[10Ch 0268   1]                Subtable Type : 00 [Processor Local APIC]
[10Dh 0269   1]                       Length : 08
[10Eh 0270   1]                 Processor ID : 1C
[10Fh 0271   1]                Local Apic ID : FF
[110h 0272   4]        Flags (decoded below) : 00000000
                           Processor Enabled : 0
                      Runtime Online Capable : 0

[114h 0276   1]                Subtable Type : 00 [Processor Local APIC]
[115h 0277   1]                       Length : 08
[116h 0278   1]                 Processor ID : 1D
[117h 0279   1]                Local Apic ID : FF
[118h 0280   4]        Flags (decoded below) : 00000000
                           Processor Enabled : 0
                      Runtime Online Capable : 0

[11Ch 0284   1]                Subtable Type : 00 [Processor Local APIC]
[11Dh 0285   1]                       Length : 08
[11Eh 0286   1]                 Processor ID : 1E
[11Fh 0287   1]                Local Apic ID : FF
[120h 0288   4]        Flags (decoded below) : 00000000
                           Processor Enabled : 0
                      Runtime Online Capable : 0

[124h 0292   1]                Subtable Type : 00 [Processor Local APIC]
[125h 0293   1]                       Length : 08
[126h 0294   1]                 Processor ID : 1F
[127h 0295   1]                Local Apic ID : FF
[128h 0296   4]        Flags (decoded below) : 00000000
                           Processor Enabled : 0
                      Runtime Online Capable : 0

[12Ch 0300   1]                Subtable Type : 01 [I/O APIC]
[12Dh 0301   1]                       Length : 0C
[12Eh 0302   1]                  I/O Apic ID : 02
[12Fh 0303   1]                     Reserved : 00
[130h 0304   4]                      Address : FEC00000
[134h 0308   4]                    Interrupt : 00000000

[138h 0312   1]                Subtable Type : 02 [Interrupt Source Override]
[139h 0313   1]                       Length : 0A
[13Ah 0314   1]                          Bus : 00
[13Bh 0315   1]                       Source : 00
[13Ch 0316   4]                    Interrupt : 00000002
[140h 0320   2]        Flags (decoded below) : 0000
                                    Polarity : 0
                                Trigger Mode : 0

[142h 0322   1]                Subtable Type : 02 [Interrupt Source Override]
[143h 0323   1]                       Length : 0A
[144h 0324   1]                          Bus : 00
[145h 0325   1]                       Source : 09
[146h 0326   4]                    Interrupt : 00000009
[14Ah 0330   2]        Flags (decoded below) : 000D
                                    Polarity : 1
                                Trigger Mode : 3

[14Ch 0332   1]                Subtable Type : 04 [Local APIC NMI]
[14Dh 0333   1]                       Length : 06
[14Eh 0334   1]                 Processor ID : 01
[14Fh 0335   2]        Flags (decoded below) : 0005
                                    Polarity : 1
                                Trigger Mode : 1
[151h 0337   1]         Interrupt Input LINT : 01

[152h 0338   1]                Subtable Type : 04 [Local APIC NMI]
[153h 0339   1]                       Length : 06
[154h 0340   1]                 Processor ID : 02
[155h 0341   2]        Flags (decoded below) : 0005
                                    Polarity : 1
                                Trigger Mode : 1
[157h 0343   1]         Interrupt Input LINT : 01

[158h 0344   1]                Subtable Type : 04 [Local APIC NMI]
[159h 0345   1]                       Length : 06
[15Ah 0346   1]                 Processor ID : 03
[15Bh 0347   2]        Flags (decoded below) : 0005
                                    Polarity : 1
                                Trigger Mode : 1
[15Dh 0349   1]         Interrupt Input LINT : 01

[15Eh 0350   1]                Subtable Type : 04 [Local APIC NMI]
[15Fh 0351   1]                       Length : 06
[160h 0352   1]                 Processor ID : 04
[161h 0353   2]        Flags (decoded below) : 0005
                                    Polarity : 1
                                Trigger Mode : 1
[163h 0355   1]         Interrupt Input LINT : 01

[164h 0356   1]                Subtable Type : 04 [Local APIC NMI]
[165h 0357   1]                       Length : 06
[166h 0358   1]                 Processor ID : 05
[167h 0359   2]        Flags (decoded below) : 0005
                                    Polarity : 1
                                Trigger Mode : 1
[169h 0361   1]         Interrupt Input LINT : 01

[16Ah 0362   1]                Subtable Type : 04 [Local APIC NMI]
[16Bh 0363   1]                       Length : 06
[16Ch 0364   1]                 Processor ID : 06
[16Dh 0365   2]        Flags (decoded below) : 0005
                                    Polarity : 1
                                Trigger Mode : 1
[16Fh 0367   1]         Interrupt Input LINT : 01

[170h 0368   1]                Subtable Type : 04 [Local APIC NMI]
[171h 0369   1]                       Length : 06
[172h 0370   1]                 Processor ID : 07
[173h 0371   2]        Flags (decoded below) : 0005
                                    Polarity : 1
                                Trigger Mode : 1
[175h 0373   1]         Interrupt Input LINT : 01

[176h 0374   1]                Subtable Type : 04 [Local APIC NMI]
[177h 0375   1]                       Length : 06
[178h 0376   1]                 Processor ID : 08
[179h 0377   2]        Flags (decoded below) : 0005
                                    Polarity : 1
                                Trigger Mode : 1
[17Bh 0379   1]         Interrupt Input LINT : 01

[17Ch 0380   1]                Subtable Type : 04 [Local APIC NMI]
[17Dh 0381   1]                       Length : 06
[17Eh 0382   1]                 Processor ID : 09
[17Fh 0383   2]        Flags (decoded below) : 0005
                                    Polarity : 1
                                Trigger Mode : 1
[181h 0385   1]         Interrupt Input LINT : 01

[182h 0386   1]                Subtable Type : 04 [Local APIC NMI]
[183h 0387   1]                       Length : 06
[184h 0388   1]                 Processor ID : 0A
[185h 0389   2]        Flags (decoded below) : 0005
                                    Polarity : 1
                                Trigger Mode : 1
[187h 0391   1]         Interrupt Input LINT : 01

[188h 0392   1]                Subtable Type : 04 [Local APIC NMI]
[189h 0393   1]                       Length : 06
[18Ah 0394   1]                 Processor ID : 0B
[18Bh 0395   2]        Flags (decoded below) : 0005
                                    Polarity : 1
                                Trigger Mode : 1
[18Dh 0397   1]         Interrupt Input LINT : 01

[18Eh 0398   1]                Subtable Type : 04 [Local APIC NMI]
[18Fh 0399   1]                       Length : 06
[190h 0400   1]                 Processor ID : 0C
[191h 0401   2]        Flags (decoded below) : 0005
                                    Polarity : 1
                                Trigger Mode : 1
[193h 0403   1]         Interrupt Input LINT : 01

[194h 0404   1]                Subtable Type : 04 [Local APIC NMI]
[195h 0405   1]                       Length : 06
[196h 0406   1]                 Processor ID : 0D
[197h 0407   2]        Flags (decoded below) : 0005
                                    Polarity : 1
                                Trigger Mode : 1
[199h 0409   1]         Interrupt Input LINT : 01

[19Ah 0410   1]                Subtable Type : 04 [Local APIC NMI]
[19Bh 0411   1]                       Length : 06
[19Ch 0412   1]                 Processor ID : 0E
[19Dh 0413   2]        Flags (decoded below) : 0005
                                    Polarity : 1
                                Trigger Mode : 1
[19Fh 0415   1]         Interrupt Input LINT : 01

[1A0h 0416   1]                Subtable Type : 04 [Local APIC NMI]
[1A1h 0417   1]                       Length : 06
[1A2h 0418   1]                 Processor ID : 0F
[1A3h 0419   2]        Flags (decoded below) : 0005
                                    Polarity : 1
                                Trigger Mode : 1
[1A5h 0421   1]         Interrupt Input LINT : 01

[1A6h 0422   1]                Subtable Type : 04 [Local APIC NMI]
[1A7h 0423   1]                       Length : 06
[1A8h 0424   1]                 Processor ID : 10
[1A9h 0425   2]        Flags (decoded below) : 0005
                                    Polarity : 1
                                Trigger Mode : 1
[1ABh 0427   1]         Interrupt Input LINT : 01

[1ACh 0428   1]                Subtable Type : 04 [Local APIC NMI]
[1ADh 0429   1]                       Length : 06
[1AEh 0430   1]                 Processor ID : 11
[1AFh 0431   2]        Flags (decoded below) : 0005
                                    Polarity : 1
                                Trigger Mode : 1
[1B1h 0433   1]         Interrupt Input LINT : 01

[1B2h 0434   1]                Subtable Type : 04 [Local APIC NMI]
[1B3h 0435   1]                       Length : 06
[1B4h 0436   1]                 Processor ID : 12
[1B5h 0437   2]        Flags (decoded below) : 0005
                                    Polarity : 1
                                Trigger Mode : 1
[1B7h 0439   1]         Interrupt Input LINT : 01

[1B8h 0440   1]                Subtable Type : 04 [Local APIC NMI]
[1B9h 0441   1]                       Length : 06
[1BAh 0442   1]                 Processor ID : 13
[1BBh 0443   2]        Flags (decoded below) : 0005
                                    Polarity : 1
                                Trigger Mode : 1
[1BDh 0445   1]         Interrupt Input LINT : 01

[1BEh 0446   1]                Subtable Type : 04 [Local APIC NMI]
[1BFh 0447   1]                       Length : 06
[1C0h 0448   1]                 Processor ID : 14
[1C1h 0449   2]        Flags (decoded below) : 0005
                                    Polarity : 1
                                Trigger Mode : 1
[1C3h 0451   1]         Interrupt Input LINT : 01

[1C4h 0452   1]                Subtable Type : 04 [Local APIC NMI]
[1C5h 0453   1]                       Length : 06
[1C6h 0454   1]                 Processor ID : 15
[1C7h 0455   2]        Flags (decoded below) : 0005
                                    Polarity : 1
                                Trigger Mode : 1
[1C9h 0457   1]         Interrupt Input LINT : 01

[1CAh 0458   1]                Subtable Type : 04 [Local APIC NMI]
[1CBh 0459   1]                       Length : 06
[1CCh 0460   1]                 Processor ID : 16
[1CDh 0461   2]        Flags (decoded below) : 0005
                                    Polarity : 1
                                Trigger Mode : 1
[1CFh 0463   1]         Interrupt Input LINT : 01

[1D0h 0464   1]                Subtable Type : 04 [Local APIC NMI]
[1D1h 0465   1]                       Length : 06
[1D2h 0466   1]                 Processor ID : 17
[1D3h 0467   2]        Flags (decoded below) : 0005
                                    Polarity : 1
                                Trigger Mode : 1
[1D5h 0469   1]         Interrupt Input LINT : 01

[1D6h 0470   1]                Subtable Type : 04 [Local APIC NMI]
[1D7h 0471   1]                       Length : 06
[1D8h 0472   1]                 Processor ID : 00
[1D9h 0473   2]        Flags (decoded below) : 0005
                                    Polarity : 1
                                Trigger Mode : 1
[1DBh 0475   1]         Interrupt Input LINT : 01

Raw Table Data: Length 476 (0x1DC)

    0000: 41 50 49 43 DC 01 00 00 05 DC 41 4C 41 53 4B 41  // APIC......ALASKA
    0010: 41 20 4D 20 49 20 00 00 09 20 07 01 41 4D 49 20  // A M I ... ..AMI 
    0020: 13 00 00 01 00 00 E0 FE 01 00 00 00 00 08 00 00  // ................
    0030: 01 00 00 00 00 08 01 01 01 00 00 00 00 08 02 08  // ................
    0040: 01 00 00 00 00 08 03 09 01 00 00 00 00 08 04 10  // ................
    0050: 01 00 00 00 00 08 05 11 01 00 00 00 00 08 06 18  // ................
    0060: 01 00 00 00 00 08 07 19 01 00 00 00 00 08 08 20  // ............... 
    0070: 01 00 00 00 00 08 09 22 01 00 00 00 00 08 0A 24  // .......".......$
    0080: 01 00 00 00 00 08 0B 26 01 00 00 00 00 08 0C 28  // .......&.......(
    0090: 01 00 00 00 00 08 0D 2A 01 00 00 00 00 08 0E 2C  // .......*.......,
    00A0: 01 00 00 00 00 08 0F 2E 01 00 00 00 00 08 10 FF  // ................
    00B0: 00 00 00 00 00 08 11 FF 00 00 00 00 00 08 12 FF  // ................
    00C0: 00 00 00 00 00 08 13 FF 00 00 00 00 00 08 14 FF  // ................
    00D0: 00 00 00 00 00 08 15 FF 00 00 00 00 00 08 16 FF  // ................
    00E0: 00 00 00 00 00 08 17 FF 00 00 00 00 00 08 18 FF  // ................
    00F0: 00 00 00 00 00 08 19 FF 00 00 00 00 00 08 1A FF  // ................
    0100: 00 00 00 00 00 08 1B FF 00 00 00 00 00 08 1C FF  // ................
    0110: 00 00 00 00 00 08 1D FF 00 00 00 00 00 08 1E FF  // ................
    0120: 00 00 00 00 00 08 1F FF 00 00 00 00 01 0C 02 00  // ................
    0130: 00 00 C0 FE 00 00 00 00 02 0A 00 00 02 00 00 00  // ................
    0140: 00 00 02 0A 00 09 09 00 00 00 0D 00 04 06 01 05  // ................
    0150: 00 01 04 06 02 05 00 01 04 06 03 05 00 01 04 06  // ................
    0160: 04 05 00 01 04 06 05 05 00 01 04 06 06 05 00 01  // ................
    0170: 04 06 07 05 00 01 04 06 08 05 00 01 04 06 09 05  // ................
    0180: 00 01 04 06 0A 05 00 01 04 06 0B 05 00 01 04 06  // ................
    0190: 0C 05 00 01 04 06 0D 05 00 01 04 06 0E 05 00 01  // ................
    01A0: 04 06 0F 05 00 01 04 06 10 05 00 01 04 06 11 05  // ................
    01B0: 00 01 04 06 12 05 00 01 04 06 13 05 00 01 04 06  // ................
    01C0: 14 05 00 01 04 06 15 05 00 01 04 06 16 05 00 01  // ................
    01D0: 04 06 17 05 00 01 04 06 00 05 00 01              // ............
